target datalayout = "e-m:e-p270:32:32-p271:32:32-p272:64:64-i64:64-i128:128-f80:128-n8:16:32:64-S128"
target triple = "x86_64-pc-linux-gnu"

%"struct.nanobind::detail::arg_data" = type { ptr, ptr, ptr, ptr, i8 }
%struct._object = type { i64, ptr }
%struct.PyVarObject = type { %struct._object, i64 }
%"struct.nanobind::detail::func_data_prelim" = type { [3 x ptr], ptr, ptr, ptr, ptr, i32, i16, i16, ptr, ptr, ptr, [0 x %"struct.nanobind::detail::arg_data"] }
%"struct.nanobind::detail::func_data" = type { %"struct.nanobind::detail::func_data_prelim", ptr, ptr }

; Function Attrs: inlinehint mustprogress uwtable
define internal void @_ZL10_Py_DECREFP7_object(ptr noundef %0) #3 {
  %2 = alloca ptr, align 8
  store ptr %0, ptr %2, align 8
  %3 = load ptr, ptr %2, align 8
  %4 = getelementptr inbounds nuw %struct._object, ptr %3, i32 0, i32 0
  %5 = load i64, ptr %4, align 8
  %6 = add nsw i64 %5, -1
  store i64 %6, ptr %4, align 8
  %7 = icmp ne i64 %6, 0
  br i1 %7, label %8, label %9

8:                                                ; preds = %1
  br label %11

9:                                                ; preds = %1
  %10 = load ptr, ptr %2, align 8
  call void @_Py_Dealloc(ptr noundef %10)
  br label %11

11:                                               ; preds = %9, %8
  ret void
}

; Function Attrs: alwaysinline mustprogress nounwind uwtable
define linkonce_odr hidden noundef ptr @_ZN8nanobind6detail12nb_func_dataEPv(ptr noundef %0) #2 comdat {
  %2 = alloca ptr, align 8
  store ptr %0, ptr %2, align 8
  %3 = load ptr, ptr %2, align 8
  %4 = getelementptr inbounds nuw i8, ptr %3, i64 40
  ret ptr %4
}

; Function Attrs: mustprogress uwtable
define hidden noundef i32 @_ZN8nanobind6detail13nb_func_clearEP7_object(ptr noundef %0) #0 {
  %2 = alloca ptr, align 8
  %3 = alloca i64, align 8
  %4 = alloca ptr, align 8
  %5 = alloca i64, align 8
  %6 = alloca i32, align 4
  %7 = alloca i64, align 8
  %8 = alloca ptr, align 8
  store ptr %0, ptr %2, align 8
  call void @llvm.lifetime.start.p0(i64 8, ptr %3) #22
  %9 = load ptr, ptr %2, align 8
  %10 = getelementptr inbounds nuw %struct.PyVarObject, ptr %9, i32 0, i32 1
  %11 = load i64, ptr %10, align 8
  store i64 %11, ptr %3, align 8
  %12 = load i64, ptr %3, align 8
  %13 = icmp ne i64 %12, 0
  br i1 %13, label %14, label %70

14:                                               ; preds = %1
  call void @llvm.lifetime.start.p0(i64 8, ptr %4) #22
  %15 = load ptr, ptr %2, align 8
  %16 = call noundef ptr @_ZN8nanobind6detail12nb_func_dataEPv(ptr noundef %15)
  store ptr %16, ptr %4, align 8
  call void @llvm.lifetime.start.p0(i64 8, ptr %5) #22
  store i64 0, ptr %5, align 8
  br label %17

17:                                               ; preds = %66, %14
  %18 = load i64, ptr %5, align 8
  %19 = load i64, ptr %3, align 8
  %20 = icmp ult i64 %18, %19
  br i1 %20, label %22, label %21

21:                                               ; preds = %17
  store i32 2, ptr %6, align 4
  call void @llvm.lifetime.end.p0(i64 8, ptr %5) #22
  br label %69

22:                                               ; preds = %17
  %23 = load ptr, ptr %4, align 8
  %24 = getelementptr inbounds nuw %"struct.nanobind::detail::func_data_prelim", ptr %23, i32 0, i32 5
  %25 = load i32, ptr %24, align 8
  %26 = and i32 %25, 128
  %27 = icmp ne i32 %26, 0
  br i1 %27, label %28, label %63

28:                                               ; preds = %22
  call void @llvm.lifetime.start.p0(i64 8, ptr %7) #22
  store i64 0, ptr %7, align 8
  br label %29

29:                                               ; preds = %59, %28
  %30 = load i64, ptr %7, align 8
  %31 = load ptr, ptr %4, align 8
  %32 = getelementptr inbounds nuw %"struct.nanobind::detail::func_data_prelim", ptr %31, i32 0, i32 6
  %33 = load i16, ptr %32, align 4
  %34 = zext i16 %33 to i64
  %35 = icmp ult i64 %30, %34
  br i1 %35, label %37, label %36

36:                                               ; preds = %29
  store i32 5, ptr %6, align 4
  call void @llvm.lifetime.end.p0(i64 8, ptr %7) #22
  br label %62

37:                                               ; preds = %29
  br label %38

38:                                               ; preds = %37
  call void @llvm.lifetime.start.p0(i64 8, ptr %8) #22
  %39 = load ptr, ptr %4, align 8
  %40 = getelementptr inbounds nuw %"struct.nanobind::detail::func_data", ptr %39, i32 0, i32 1
  %41 = load ptr, ptr %40, align 8
  %42 = load i64, ptr %7, align 8
  %43 = getelementptr inbounds nuw %"struct.nanobind::detail::arg_data", ptr %41, i64 %42
  %44 = getelementptr inbounds nuw %"struct.nanobind::detail::arg_data", ptr %43, i32 0, i32 3
  %45 = load ptr, ptr %44, align 8
  store ptr %45, ptr %8, align 8
  %46 = load ptr, ptr %8, align 8
  %47 = icmp ne ptr %46, null
  br i1 %47, label %48, label %56

48:                                               ; preds = %38
  %49 = load ptr, ptr %4, align 8
  %50 = getelementptr inbounds nuw %"struct.nanobind::detail::func_data", ptr %49, i32 0, i32 1
  %51 = load ptr, ptr %50, align 8
  %52 = load i64, ptr %7, align 8
  %53 = getelementptr inbounds nuw %"struct.nanobind::detail::arg_data", ptr %51, i64 %52
  %54 = getelementptr inbounds nuw %"struct.nanobind::detail::arg_data", ptr %53, i32 0, i32 3
  store ptr null, ptr %54, align 8
  %55 = load ptr, ptr %8, align 8
  call void @_ZL10_Py_DECREFP7_object(ptr noundef %55)
  br label %56

56:                                               ; preds = %48, %38
  call void @llvm.lifetime.end.p0(i64 8, ptr %8) #22
  br label %57

57:                                               ; preds = %56
  br label %58

58:                                               ; preds = %57
  br label %59

59:                                               ; preds = %58
  %60 = load i64, ptr %7, align 8
  %61 = add i64 %60, 1
  store i64 %61, ptr %7, align 8
  br label %29, !llvm.loop !6

62:                                               ; preds = %36
  br label %63

63:                                               ; preds = %62, %22
  %64 = load ptr, ptr %4, align 8
  %65 = getelementptr inbounds nuw %"struct.nanobind::detail::func_data", ptr %64, i32 1
  store ptr %65, ptr %4, align 8
  br label %66

66:                                               ; preds = %63
  %67 = load i64, ptr %5, align 8
  %68 = add i64 %67, 1
  store i64 %68, ptr %5, align 8
  br label %17, !llvm.loop !7

69:                                               ; preds = %21
  call void @llvm.lifetime.end.p0(i64 8, ptr %4) #22
  br label %70

70:                                               ; preds = %69, %1
  store i32 1, ptr %6, align 4
  call void @llvm.lifetime.end.p0(i64 8, ptr %3) #22
  ret i32 0
}