; Function Attrs: mustprogress uwtable
define hidden noundef i32 @_ZN8nanobind6detail13nb_func_clearEP7_object(ptr noundef readonly captures(none) %0) local_unnamed_addr #0 {
  %2 = getelementptr inbounds nuw i8, ptr %0, i64 16
  %3 = load i64, ptr %2, align 8
  %.not = icmp eq i64 %3, 0
  br i1 %.not, label %.loopexit22, label %4

4:                                                ; preds = %1
  %5 = getelementptr inbounds nuw i8, ptr %0, i64 40
  br label %6

6:                                                ; preds = %4, %.loopexit
  %.025 = phi ptr [ %5, %4 ], [ %25, %.loopexit ]
  %.01724 = phi i64 [ 0, %4 ], [ %26, %.loopexit ]
  %7 = getelementptr inbounds nuw i8, ptr %.025, i64 56
  %8 = load i32, ptr %7, align 8
  %9 = and i32 %8, 128
  %.not20 = icmp eq i32 %9, 0
  br i1 %.not20, label %.loopexit, label %.preheader

.preheader:                                       ; preds = %6
  %10 = getelementptr inbounds nuw i8, ptr %.025, i64 60
  %11 = load i16, ptr %10, align 4
  %.not27 = icmp eq i16 %11, 0
  br i1 %.not27, label %.loopexit, label %.lr.ph

.lr.ph:                                           ; preds = %.preheader
  %12 = getelementptr inbounds nuw i8, ptr %.025, i64 88
  br label %13

13:                                               ; preds = %.lr.ph, %_ZL10_Py_DECREFP7_object.exit
  %.01623 = phi i64 [ 0, %.lr.ph ], [ %21, %_ZL10_Py_DECREFP7_object.exit ]
  %14 = load ptr, ptr %12, align 8
  %15 = getelementptr inbounds nuw %"struct.nanobind::detail::arg_data", ptr %14, i64 %.01623, i32 3
  %16 = load ptr, ptr %15, align 8
  %.not21 = icmp eq ptr %16, null
  br i1 %.not21, label %_ZL10_Py_DECREFP7_object.exit, label %17

17:                                               ; preds = %13
  store ptr null, ptr %15, align 8
  %18 = load i64, ptr %16, align 8
  %19 = add nsw i64 %18, -1
  store i64 %19, ptr %16, align 8
  %.not.i = icmp eq i64 %19, 0
  br i1 %.not.i, label %20, label %_ZL10_Py_DECREFP7_object.exit

20:                                               ; preds = %17
  tail call void @_Py_Dealloc(ptr noundef nonnull %16)
  br label %_ZL10_Py_DECREFP7_object.exit

_ZL10_Py_DECREFP7_object.exit:                    ; preds = %20, %17, %13
  %21 = add nuw nsw i64 %.01623, 1
  %22 = load i16, ptr %10, align 4
  %23 = zext i16 %22 to i64
  %24 = icmp samesign ult i64 %21, %23
  br i1 %24, label %13, label %.loopexit, !llvm.loop !6

.loopexit:                                        ; preds = %_ZL10_Py_DECREFP7_object.exit, %.preheader, %6
  %25 = getelementptr inbounds nuw i8, ptr %.025, i64 104
  %26 = add nuw i64 %.01724, 1
  %exitcond.not = icmp eq i64 %26, %3
  br i1 %exitcond.not, label %.loopexit22, label %6, !llvm.loop !7

.loopexit22:                                      ; preds = %.loopexit, %1
  ret i32 0
}